; Function Attrs: mustprogress nounwind uwtable
define internal fastcc noundef ptr @_ZN18fast_double_parserL18parse_float_strtodEPKcPd(ptr noundef %0, ptr noundef writeonly captures(none) initializes((0, 8)) %1) unnamed_addr #13 {
  %3 = alloca ptr, align 8
  call void @llvm.lifetime.start.p0(i64 8, ptr nonnull %3) #33
  %4 = load atomic i8, ptr @_ZGVZN18fast_double_parserL18parse_float_strtodEPKcPdE8c_locale acquire, align 8
  %5 = icmp eq i8 %4, 0
  br i1 %5, label %6, label %10, !prof !112

6:                                                ; preds = %2
  %7 = tail call i32 @__cxa_guard_acquire(ptr nonnull @_ZGVZN18fast_double_parserL18parse_float_strtodEPKcPdE8c_locale) #33
  %.not = icmp eq i32 %7, 0
  br i1 %.not, label %10, label %8

8:                                                ; preds = %6
  %9 = tail call ptr @newlocale(i32 noundef 8127, ptr noundef nonnull @.str.26, ptr noundef null) #33
  store ptr %9, ptr @_ZZN18fast_double_parserL18parse_float_strtodEPKcPdE8c_locale, align 8, !tbaa !144
  tail call void @__cxa_guard_release(ptr nonnull @_ZGVZN18fast_double_parserL18parse_float_strtodEPKcPdE8c_locale) #33
  br label %10

10:                                               ; preds = %8, %6, %2
  %11 = load ptr, ptr @_ZZN18fast_double_parserL18parse_float_strtodEPKcPdE8c_locale, align 8, !tbaa !144
  %12 = call double @strtod_l(ptr noundef %0, ptr noundef nonnull %3, ptr noundef %11) #33
  store double %12, ptr %1, align 8, !tbaa !145
  %13 = call double @llvm.fabs.f64(double %12)
  %14 = fcmp one double %13, 0x7FF0000000000000
  %15 = load ptr, ptr %3, align 8
  %.0 = select i1 %14, ptr %15, ptr null
  call void @llvm.lifetime.end.p0(i64 8, ptr nonnull %3) #33
  ret ptr %.0
}